target datalayout = "e-m:e-p270:32:32-p271:32:32-p272:64:64-i64:64-i128:128-f80:128-n8:16:32:64-S128"
target triple = "x86_64-pc-linux-gnu"

%struct.IncrblobChannel = type { ptr, ptr, i64, i32, ptr, ptr, ptr }

; Function Attrs: nounwind uwtable
define internal i64 @incrblobWideSeek(ptr noundef %0, i64 noundef %1, i32 noundef %2, ptr noundef %3) #0 {
  %5 = alloca ptr, align 8
  %6 = alloca i64, align 8
  %7 = alloca i32, align 4
  %8 = alloca ptr, align 8
  %9 = alloca ptr, align 8
  store ptr %0, ptr %5, align 8, !tbaa !15
  store i64 %1, ptr %6, align 8, !tbaa !97
  store i32 %2, ptr %7, align 4, !tbaa !8
  store ptr %3, ptr %8, align 8, !tbaa !164
  call void @llvm.lifetime.start.p0(i64 8, ptr %9) #10
  %10 = load ptr, ptr %5, align 8, !tbaa !15
  store ptr %10, ptr %9, align 8, !tbaa !198
  %11 = load i32, ptr %7, align 4, !tbaa !8
  switch i32 %11, label %32 [
    i32 0, label %12
    i32 1, label %16
    i32 2, label %22
  ]

12:                                               ; preds = %4
  %13 = load i64, ptr %6, align 8, !tbaa !97
  %14 = load ptr, ptr %9, align 8, !tbaa !198
  %15 = getelementptr inbounds nuw %struct.IncrblobChannel, ptr %14, i32 0, i32 2
  store i64 %13, ptr %15, align 8, !tbaa !237
  br label %33

16:                                               ; preds = %4
  %17 = load i64, ptr %6, align 8, !tbaa !97
  %18 = load ptr, ptr %9, align 8, !tbaa !198
  %19 = getelementptr inbounds nuw %struct.IncrblobChannel, ptr %18, i32 0, i32 2
  %20 = load i64, ptr %19, align 8, !tbaa !237
  %21 = add nsw i64 %20, %17
  store i64 %21, ptr %19, align 8, !tbaa !237
  br label %33

22:                                               ; preds = %4
  %23 = load ptr, ptr %9, align 8, !tbaa !198
  %24 = getelementptr inbounds nuw %struct.IncrblobChannel, ptr %23, i32 0, i32 0
  %25 = load ptr, ptr %24, align 8, !tbaa !201
  %26 = call i32 @sqlite3_blob_bytes(ptr noundef %25)
  %27 = sext i32 %26 to i64
  %28 = load i64, ptr %6, align 8, !tbaa !97
  %29 = add nsw i64 %27, %28
  %30 = load ptr, ptr %9, align 8, !tbaa !198
  %31 = getelementptr inbounds nuw %struct.IncrblobChannel, ptr %30, i32 0, i32 2
  store i64 %29, ptr %31, align 8, !tbaa !237
  br label %33

32:                                               ; preds = %4
  br label %33

33:                                               ; preds = %32, %22, %16, %12
  %34 = load ptr, ptr %9, align 8, !tbaa !198
  %35 = getelementptr inbounds nuw %struct.IncrblobChannel, ptr %34, i32 0, i32 2
  %36 = load i64, ptr %35, align 8, !tbaa !237
  call void @llvm.lifetime.end.p0(i64 8, ptr %9) #10
  ret i64 %36
}

; Function Attrs: nounwind uwtable
define internal i32 @incrblobSeek(ptr noundef %0, i64 noundef %1, i32 noundef %2, ptr noundef %3) #0 {
  %5 = alloca ptr, align 8
  %6 = alloca i64, align 8
  %7 = alloca i32, align 4
  %8 = alloca ptr, align 8
  store ptr %0, ptr %5, align 8, !tbaa !15
  store i64 %1, ptr %6, align 8, !tbaa !238
  store i32 %2, ptr %7, align 4, !tbaa !8
  store ptr %3, ptr %8, align 8, !tbaa !164
  %9 = load ptr, ptr %5, align 8, !tbaa !15
  %10 = load i64, ptr %6, align 8, !tbaa !238
  %11 = load i32, ptr %7, align 4, !tbaa !8
  %12 = load ptr, ptr %8, align 8, !tbaa !164
  %13 = call i64 @incrblobWideSeek(ptr noundef %9, i64 noundef %10, i32 noundef %11, ptr noundef %12)
  %14 = trunc i64 %13 to i32
  ret i32 %14
}